target datalayout = "e-m:e-p270:32:32-p271:32:32-p272:64:64-i64:64-i128:128-f80:128-n8:16:32:64-S128"
target triple = "x86_64-unknown-linux-gnu"

%class.symbol = type { ptr }
%class.params_ref = type { ptr }
%class.arith_util = type { ptr, ptr }
%class.bv_util = type { %class.bv_recognizers, ptr, ptr }
%class.bv_recognizers = type { i32 }
%"class.datalog::dl_decl_util" = type <{ ptr, %class.scoped_ptr.13, %class.scoped_ptr.14, i32, [4 x i8] }>
%class.scoped_ptr.13 = type { ptr }
%class.scoped_ptr.14 = type { ptr }
%class.ref_vector = type { %class.ref_vector_core }
%class.ref_vector_core = type { %class.ref_manager_wrapper, %class.ptr_vector.16 }
%class.ref_manager_wrapper = type { ptr }
%class.ptr_vector.16 = type { %class.vector.17 }
%class.vector.17 = type { ptr }
%"class.recfun::util" = type { ptr, i32, ptr }
%class.ptr_vector.18 = type { %class.vector.19 }
%class.vector.19 = type { ptr }
%class.ref_vector.22 = type { %class.ref_vector_core.23 }
%class.ref_vector_core.23 = type { %class.ref_manager_wrapper.24, %class.ptr_vector.18 }
%class.ref_manager_wrapper.24 = type { ptr }
%class.svector = type { %class.vector.29 }
%class.vector.29 = type { ptr }
%"struct.std::atomic" = type { %"struct.std::__atomic_base" }
%"struct.std::__atomic_base" = type { i32 }
%struct.Z3_fixedpoint_ref = type { %"class.api::object", ptr, %class.params_ref }
%"class.api::object" = type { ptr, %"struct.std::atomic", i32, ptr }
%"class.api::fixedpoint_context" = type { %"class.datalog::external_relation_context", ptr, ptr, ptr, %"class.datalog::register_engine", %"class.datalog::context", %class.ref_vector.22 }
%"class.datalog::external_relation_context" = type { ptr }
%"class.datalog::register_engine" = type { %"class.datalog::register_engine_base", ptr }
%"class.datalog::register_engine_base" = type { ptr }
%"class.datalog::context" = type <{ ptr, ptr, ptr, %class.params_ref, ptr, i8, i8, [6 x i8], %class.symbol, %"class.datalog::dl_decl_util", %class.th_rewriter, %class.var_subst, %"class.datalog::rule_manager", %"class.datalog::context::contains_pred", %"class.datalog::rule_properties", %"class.datalog::rule_transformer", %class.trail_stack, %class.ref_vector.22, %class.bind_variables, %class.obj_map.137, %class.obj_hashtable.142, %class.map.148, %class.obj_map.152, %"class.datalog::rule_set", %"class.datalog::rule_set", %class.expr_free_vars, i32, [4 x i8], %class.ref_vector, %class.svector.135, %class.vector.176, %class.ref_vector, %class.ref.177, %class.ref.178, ptr, %class.scoped_ptr.179, i8, i8, i8, i8, i32, %class.obj_ref, %class.obj_ref, i32, [4 x i8] }>
%class.th_rewriter = type { ptr, %class.params_ref }
%class.var_subst = type { %class.beta_reducer, i8, [7 x i8] }
%class.beta_reducer = type <{ %class.rewriter_tpl, %struct.beta_reducer_cfg, [7 x i8] }>
%class.rewriter_tpl = type { %class.rewriter_core, ptr, i32, %class.ptr_vector.16, %class.var_shifter, %class.inv_var_shifter, %class.obj_ref, %class.obj_ref.63, %class.obj_ref.63, %class.svector }
%class.rewriter_core = type { ptr, ptr, i8, i8, %class.ptr_vector.50, ptr, %class.svector.52, %class.ref_vector, %class.ptr_vector.50, ptr, %class.ref_vector.54, %class.obj_hashtable, ptr, i32, %class.svector.61 }
%class.svector.52 = type { %class.vector.53 }
%class.vector.53 = type { ptr }
%class.ptr_vector.50 = type { %class.vector.51 }
%class.vector.51 = type { ptr }
%class.ref_vector.54 = type { %class.ref_vector_core.55 }
%class.ref_vector_core.55 = type { %class.ref_manager_wrapper.56, %class.ptr_vector.57 }
%class.ref_manager_wrapper.56 = type { ptr }
%class.ptr_vector.57 = type { %class.vector.58 }
%class.vector.58 = type { ptr }
%class.obj_hashtable = type { %class.core_hashtable.base.60, [4 x i8] }
%class.core_hashtable.base.60 = type <{ ptr, i32, i32, i32 }>
%class.svector.61 = type { %class.vector.62 }
%class.vector.62 = type { ptr }
%class.var_shifter = type <{ %class.var_shifter_core, i32, i32, i32, [4 x i8] }>
%class.var_shifter_core = type { %class.rewriter_core }
%class.inv_var_shifter = type <{ %class.var_shifter_core, i32, [4 x i8] }>
%class.obj_ref.63 = type { ptr, ptr }
%struct.beta_reducer_cfg = type { i8 }
%"class.datalog::rule_manager" = type { ptr, ptr, %"class.datalog::rule_counter", %class.used_vars, %class.uint_set, %class.expr_free_vars, %class.ref_vector.54, %class.obj_ref.63, %class.ref_vector, %class.svector.77, %class.hnf, %class.qe_lite, %class.label_rewriter, %"struct.datalog::uninterpreted_function_finder_proc", %"struct.datalog::quantifier_finder_proc", [5 x i8], %class.expr_sparse_mark, %"struct.datalog::fd_finder_proc" }
%"class.datalog::rule_counter" = type { %class.var_counter }
%class.var_counter = type { %class.counter, %class.ast_fast_mark, %class.expr_free_vars, %class.ptr_vector.16, %class.svector }
%class.counter = type { %class.u_map.64 }
%class.u_map.64 = type { %class.map.65 }
%class.map.65 = type { %class.table2map.66 }
%class.table2map.66 = type { %class.core_hashtable.67 }
%class.core_hashtable.67 = type <{ ptr, i32, i32, i32, [4 x i8] }>
%class.ast_fast_mark = type { %class.ptr_buffer }
%class.ptr_buffer = type { %class.buffer.69 }
%class.buffer.69 = type { ptr, i32, i32, [16 x %"union.std::aligned_storage<8, 8>::type"] }
%"union.std::aligned_storage<8, 8>::type" = type { [8 x i8] }
%class.used_vars = type { %class.ptr_vector.71, %class.hashtable, %class.svector.75, i32, i32 }
%class.ptr_vector.71 = type { %class.vector.72 }
%class.vector.72 = type { ptr }
%class.hashtable = type { %class.core_hashtable.base.74, [4 x i8] }
%class.core_hashtable.base.74 = type <{ ptr, i32, i32, i32 }>
%class.svector.75 = type { %class.vector.76 }
%class.vector.76 = type { ptr }
%class.uint_set = type { %class.svector }
%class.svector.77 = type { %class.vector.78 }
%class.vector.78 = type { ptr }
%class.hnf = type { ptr }
%class.qe_lite = type { ptr }
%class.label_rewriter = type { i32, %class.rewriter_tpl.79 }
%class.rewriter_tpl.79 = type { %class.rewriter_core, ptr, i32, %class.ptr_vector.16, %class.var_shifter, %class.inv_var_shifter, %class.obj_ref, %class.obj_ref.63, %class.obj_ref.63, %class.svector }
%"struct.datalog::uninterpreted_function_finder_proc" = type { ptr, %"class.datatype::util", %"class.datalog::dl_decl_util", i8, ptr }
%"class.datatype::util" = type { ptr, i32, ptr, %class.obj_map, %class.obj_map.84, %class.obj_map.89, %class.obj_map.94, %class.obj_map.94, %class.obj_map.94, %class.obj_map.99, %class.obj_map.99, %class.obj_map.99, %class.ref_vector.22, %class.ref_vector_core.104, %class.ptr_vector.107, i32, %class.ptr_vector.71 }
%class.obj_map = type { %class.core_hashtable.80 }
%class.core_hashtable.80 = type <{ ptr, i32, i32, i32, [4 x i8] }>
%class.obj_map.84 = type { %class.core_hashtable.85 }
%class.core_hashtable.85 = type <{ ptr, i32, i32, i32, [4 x i8] }>
%class.obj_map.89 = type { %class.core_hashtable.90 }
%class.core_hashtable.90 = type <{ ptr, i32, i32, i32, [4 x i8] }>
%class.obj_map.94 = type { %class.core_hashtable.95 }
%class.core_hashtable.95 = type <{ ptr, i32, i32, i32, [4 x i8] }>
%class.obj_map.99 = type { %class.core_hashtable.100 }
%class.core_hashtable.100 = type <{ ptr, i32, i32, i32, [4 x i8] }>
%class.ref_vector_core.104 = type { %class.ptr_vector.105 }
%class.ptr_vector.105 = type { %class.vector.106 }
%class.vector.106 = type { ptr }
%class.ptr_vector.107 = type { %class.vector.108 }
%class.vector.108 = type { ptr }
%"struct.datalog::quantifier_finder_proc" = type { i8, i8, i8 }
%class.expr_sparse_mark = type { %class.obj_hashtable }
%"struct.datalog::fd_finder_proc" = type <{ ptr, %class.bv_util, i8, [7 x i8] }>
%"class.datalog::context::contains_pred" = type { %class.i_expr_pred, ptr }
%class.i_expr_pred = type { ptr }
%"class.datalog::rule_properties" = type <{ ptr, ptr, ptr, ptr, %"class.datatype::util", %"class.datalog::dl_decl_util", %class.arith_util, %class.bv_util, %class.array_util, %"class.recfun::util", i8, [7 x i8], ptr, %class.obj_map.109, %class.obj_map.114, %class.ptr_vector.119, %class.ptr_vector.119, %class.ptr_vector.119, i8, i8, [6 x i8] }>
%class.array_util = type { %class.array_recognizers, ptr }
%class.array_recognizers = type { i32 }
%class.obj_map.109 = type { %class.core_hashtable.110 }
%class.core_hashtable.110 = type <{ ptr, i32, i32, i32, [4 x i8] }>
%class.obj_map.114 = type { %class.core_hashtable.115 }
%class.core_hashtable.115 = type <{ ptr, i32, i32, i32, [4 x i8] }>
%class.ptr_vector.119 = type { %class.vector.120 }
%class.vector.120 = type { ptr }
%"class.datalog::rule_transformer" = type { ptr, ptr, i8, %class.svector.121 }
%class.svector.121 = type { %class.vector.122 }
%class.vector.122 = type { ptr }
%class.trail_stack = type { %class.ptr_vector.123, %class.svector, %class.region }
%class.ptr_vector.123 = type { %class.vector.124 }
%class.vector.124 = type { ptr }
%class.region = type { ptr, ptr, ptr, ptr, ptr }
%class.bind_variables = type { ptr, %class.ref_vector.54, %class.obj_map.125, %class.obj_map.130, %class.ref_vector, %class.ptr_vector.71, %class.svector.135, %class.ptr_vector.16, %class.ptr_vector.16 }
%class.obj_map.125 = type { %class.core_hashtable.126 }
%class.core_hashtable.126 = type <{ ptr, i32, i32, i32, [4 x i8] }>
%class.obj_map.130 = type { %class.core_hashtable.131 }
%class.core_hashtable.131 = type <{ ptr, i32, i32, i32, [4 x i8] }>
%class.obj_map.137 = type { %class.core_hashtable.138 }
%class.core_hashtable.138 = type <{ ptr, i32, i32, i32, [4 x i8] }>
%class.obj_hashtable.142 = type { %class.core_hashtable.base.146, [4 x i8] }
%class.core_hashtable.base.146 = type <{ ptr, i32, i32, i32 }>
%class.map.148 = type { %class.table2map.149 }
%class.table2map.149 = type { %class.core_hashtable.150 }
%class.core_hashtable.150 = type <{ ptr, i32, i32, i32, [4 x i8] }>
%class.obj_map.152 = type { %class.core_hashtable.153 }
%class.core_hashtable.153 = type <{ ptr, i32, i32, i32, [4 x i8] }>
%"class.datalog::rule_set" = type { ptr, ptr, %class.ref_vector.157, %class.obj_map.160, %"class.datalog::rule_dependencies", %class.scoped_ptr.170, %class.obj_hashtable.142, %class.obj_map.94, %class.obj_map.94, %class.ref_vector.171, %class.ptr_vector.119 }
%class.ref_vector.157 = type { %class.ref_vector_core.158 }
%class.ref_vector_core.158 = type { %class.ref_manager_wrapper.159, %class.ptr_vector.119 }
%class.ref_manager_wrapper.159 = type { ptr }
%class.obj_map.160 = type { %class.core_hashtable.161 }
%class.core_hashtable.161 = type <{ ptr, i32, i32, i32, [4 x i8] }>
%"class.datalog::rule_dependencies" = type { %class.obj_map.165, ptr, %class.ptr_vector.16, %class.expr_sparse_mark, %class.obj_hashtable.142 }
%class.obj_map.165 = type { %class.core_hashtable.166 }
%class.core_hashtable.166 = type <{ ptr, i32, i32, i32, [4 x i8] }>
%class.scoped_ptr.170 = type { ptr }
%class.ref_vector.171 = type { %class.ref_vector_core.172 }
%class.ref_vector_core.172 = type { %class.ref_manager_wrapper.173, %class.ptr_vector.174 }
%class.ref_manager_wrapper.173 = type { ptr }
%class.ptr_vector.174 = type { %class.vector.175 }
%class.vector.175 = type { ptr }
%class.expr_free_vars = type { %class.expr_sparse_mark, %class.ptr_vector.71, %class.ptr_vector.16 }
%class.svector.135 = type { %class.vector.136 }
%class.vector.136 = type { ptr }
%class.vector.176 = type { ptr }
%class.ref.177 = type { ptr }
%class.ref.178 = type { ptr }
%class.scoped_ptr.179 = type { ptr }
%class.obj_ref = type { ptr, ptr }

; Function Attrs: mustprogress nounwind uwtable
define linkonce_odr hidden noundef ptr @_ZNK10scoped_ptrIN7datalog11engine_baseEEptEv(ptr noundef nonnull align 8 dereferenceable(8) %this) #5 comdat align 2 {
entry:
  %this.addr = alloca ptr, align 8
  store ptr %this, ptr %this.addr, align 8
  %this1 = load ptr, ptr %this.addr, align 8
  %m_ptr = getelementptr inbounds %class.scoped_ptr.179, ptr %this1, i32 0, i32 0
  %0 = load ptr, ptr %m_ptr, align 8
  ret ptr %0
}

; Function Attrs: mustprogress nounwind uwtable
define linkonce_odr hidden noundef ptr @_Z13to_fixedpointP14_Z3_fixedpoint(ptr noundef %s) #5 comdat {
entry:
  %s.addr = alloca ptr, align 8
  store ptr %s, ptr %s.addr, align 8
  %0 = load ptr, ptr %s.addr, align 8
  ret ptr %0
}

; Function Attrs: mustprogress uwtable
define linkonce_odr hidden void @_ZN7datalog7context14add_constraintEP4exprj(ptr noundef nonnull align 8 dereferenceable(3556) %this, ptr noundef %c, i32 noundef %lvl) #4 comdat align 2 {
entry:
  %this.addr = alloca ptr, align 8
  %c.addr = alloca ptr, align 8
  %lvl.addr = alloca i32, align 4
  store ptr %this, ptr %this.addr, align 8
  store ptr %c, ptr %c.addr, align 8
  store i32 %lvl, ptr %lvl.addr, align 4
  %this1 = load ptr, ptr %this.addr, align 8
  call void @_ZN7datalog7context13ensure_engineEP4expr(ptr noundef nonnull align 8 dereferenceable(3556) %this1, ptr noundef null)
  %m_engine = getelementptr inbounds %"class.datalog::context", ptr %this1, i32 0, i32 35
  %call = call noundef ptr @_ZNK10scoped_ptrIN7datalog11engine_baseEEptEv(ptr noundef nonnull align 8 dereferenceable(8) %m_engine)
  %0 = load ptr, ptr %c.addr, align 8
  %1 = load i32, ptr %lvl.addr, align 4
  %vtable = load ptr, ptr %call, align 8
  %vfn = getelementptr inbounds ptr, ptr %vtable, i64 20
  %2 = load ptr, ptr %vfn, align 8
  call void %2(ptr noundef nonnull align 8 dereferenceable(48) %call, ptr noundef %0, i32 noundef %1)
  ret void
}

; Function Attrs: mustprogress nounwind uwtable
define linkonce_odr hidden noundef ptr @_Z7to_exprP7_Z3_ast(ptr noundef %a) #5 comdat {
entry:
  %a.addr = alloca ptr, align 8
  store ptr %a, ptr %a.addr, align 8
  %0 = load ptr, ptr %a.addr, align 8
  ret ptr %0
}

; Function Attrs: mustprogress nounwind uwtable
define linkonce_odr hidden noundef nonnull align 8 dereferenceable(3556) ptr @_ZN3api18fixedpoint_context3ctxEv(ptr noundef nonnull align 8 dereferenceable(3624) %this) #5 comdat align 2 {
entry:
  %this.addr = alloca ptr, align 8
  store ptr %this, ptr %this.addr, align 8
  %this1 = load ptr, ptr %this.addr, align 8
  %m_context = getelementptr inbounds %"class.api::fixedpoint_context", ptr %this1, i32 0, i32 5
  ret ptr %m_context
}

; Function Attrs: mustprogress nounwind uwtable
define linkonce_odr hidden noundef ptr @_Z17to_fixedpoint_refP14_Z3_fixedpoint(ptr noundef %s) #5 comdat {
entry:
  %s.addr = alloca ptr, align 8
  store ptr %s, ptr %s.addr, align 8
  %0 = load ptr, ptr %s.addr, align 8
  %call = call noundef ptr @_Z13to_fixedpointP14_Z3_fixedpoint(ptr noundef %0)
  %m_datalog = getelementptr inbounds %struct.Z3_fixedpoint_ref, ptr %call, i32 0, i32 1
  %1 = load ptr, ptr %m_datalog, align 8
  ret ptr %1
}

; Function Attrs: mustprogress uwtable
define void @Z3_fixedpoint_add_constraint(ptr noundef %c, ptr noundef %d, ptr noundef %e, i32 noundef %lvl) #4 {
entry:
  %c.addr = alloca ptr, align 8
  %d.addr = alloca ptr, align 8
  %e.addr = alloca ptr, align 8
  %lvl.addr = alloca i32, align 4
  store ptr %c, ptr %c.addr, align 8
  store ptr %d, ptr %d.addr, align 8
  store ptr %e, ptr %e.addr, align 8
  store i32 %lvl, ptr %lvl.addr, align 4
  %0 = load ptr, ptr %d.addr, align 8
  %call = call noundef ptr @_Z17to_fixedpoint_refP14_Z3_fixedpoint(ptr noundef %0)
  %call1 = call noundef nonnull align 8 dereferenceable(3556) ptr @_ZN3api18fixedpoint_context3ctxEv(ptr noundef nonnull align 8 dereferenceable(3624) %call)
  %1 = load ptr, ptr %e.addr, align 8
  %call2 = call noundef ptr @_Z7to_exprP7_Z3_ast(ptr noundef %1)
  %2 = load i32, ptr %lvl.addr, align 4
  call void @_ZN7datalog7context14add_constraintEP4exprj(ptr noundef nonnull align 8 dereferenceable(3556) %call1, ptr noundef %call2, i32 noundef %2)
  ret void
}