; Function Attrs: mustprogress uwtable
define void @Z3_fixedpoint_add_constraint(ptr nocapture noundef readnone %c, ptr nocapture noundef readonly %d, ptr noundef %e, i32 noundef %lvl) local_unnamed_addr #3 {
entry:
  %m_datalog.i = getelementptr inbounds i8, ptr %d, i64 24
  %0 = load ptr, ptr %m_datalog.i, align 8
  %m_context.i = getelementptr inbounds i8, ptr %0, i64 48
  tail call void @_ZN7datalog7context13ensure_engineEP4expr(ptr noundef nonnull align 8 dereferenceable(3556) %m_context.i, ptr noundef null)
  %m_engine.i = getelementptr inbounds i8, ptr %0, i64 3552
  %1 = load ptr, ptr %m_engine.i, align 8
  %vtable.i = load ptr, ptr %1, align 8
  %vfn.i = getelementptr inbounds i8, ptr %vtable.i, i64 160
  %2 = load ptr, ptr %vfn.i, align 8
  tail call void %2(ptr noundef nonnull align 8 dereferenceable(48) %1, ptr noundef %e, i32 noundef %lvl)
  ret void
}